target datalayout = "e-m:e-p270:32:32-p271:32:32-p272:64:64-i64:64-i128:128-f80:128-n8:16:32:64-S128"
target triple = "x86_64-pc-linux-gnu"

%class.rational = type { %class.mpq }
%class.mpq = type { %class.mpz, %class.mpz }
%class.mpz = type { i32, i8, ptr }
%class.svector = type { %class.vector.16 }
%class.vector.16 = type { ptr }
%"class.nla::mon_eq" = type { i32, %class.svector }

@_ZN8rational13g_mpq_managerE = external global ptr, align 8

; Function Attrs: inlinehint mustprogress nounwind uwtable
define linkonce_odr hidden noundef zeroext i1 @_ZNK3mpz8is_smallEv(ptr noundef nonnull align 8 dereferenceable(16) %0) #7 comdat align 2 {
  %2 = alloca ptr, align 8
  store ptr %0, ptr %2, align 8, !tbaa !336
  %3 = load ptr, ptr %2, align 8
  %4 = getelementptr inbounds nuw %class.mpz, ptr %3, i32 0, i32 1
  %5 = load i8, ptr %4, align 4
  %6 = and i8 %5, 1
  %7 = zext i8 %6 to i32
  %8 = icmp eq i32 %7, 0
  ret i1 %8
}

; Function Attrs: inlinehint mustprogress nounwind uwtable
define linkonce_odr hidden noundef i32 @_ZNK3mpz5valueEv(ptr noundef nonnull align 8 dereferenceable(16) %0) #7 comdat align 2 {
  %2 = alloca ptr, align 8
  store ptr %0, ptr %2, align 8, !tbaa !336
  %3 = load ptr, ptr %2, align 8
  %4 = getelementptr inbounds nuw %class.mpz, ptr %3, i32 0, i32 0
  %5 = load i32, ptr %4, align 8, !tbaa !338
  ret i32 %5
}

; Function Attrs: mustprogress uwtable
define linkonce_odr hidden noundef zeroext i1 @_ZN11mpz_managerILb1EE8is_smallERK3mpz(ptr noundef nonnull align 8 dereferenceable(16) %0) #6 comdat align 2 {
  %2 = alloca ptr, align 8
  store ptr %0, ptr %2, align 8, !tbaa !336
  %3 = load ptr, ptr %2, align 8, !tbaa !336
  %4 = call noundef zeroext i1 @_ZNK3mpz8is_smallEv(ptr noundef nonnull align 8 dereferenceable(16) %3)
  ret i1 %4
}

; Function Attrs: mustprogress uwtable
define linkonce_odr hidden noundef zeroext i1 @_ZN11mpz_managerILb1EE6is_oneERK3mpz(ptr noundef nonnull align 8 dereferenceable(16) %0) #6 comdat align 2 {
  %2 = alloca ptr, align 8
  store ptr %0, ptr %2, align 8, !tbaa !336
  %3 = load ptr, ptr %2, align 8, !tbaa !336
  %4 = call noundef zeroext i1 @_ZN11mpz_managerILb1EE8is_smallERK3mpz(ptr noundef nonnull align 8 dereferenceable(16) %3)
  br i1 %4, label %5, label %9

5:                                                ; preds = %1
  %6 = load ptr, ptr %2, align 8, !tbaa !336
  %7 = call noundef i32 @_ZNK3mpz5valueEv(ptr noundef nonnull align 8 dereferenceable(16) %6)
  %8 = icmp eq i32 %7, 1
  br label %9

9:                                                ; preds = %5, %1
  %10 = phi i1 [ false, %1 ], [ %8, %5 ]
  ret i1 %10
}

; Function Attrs: mustprogress uwtable
define linkonce_odr hidden noundef zeroext i1 @_ZN11mpz_managerILb1EE2ltERK3mpzS3_(ptr noundef nonnull align 8 dereferenceable(600) %0, ptr noundef nonnull align 8 dereferenceable(16) %1, ptr noundef nonnull align 8 dereferenceable(16) %2) #6 comdat align 2 {
  %4 = alloca i1, align 1
  %5 = alloca ptr, align 8
  %6 = alloca ptr, align 8
  %7 = alloca ptr, align 8
  store ptr %0, ptr %5, align 8, !tbaa !384
  store ptr %1, ptr %6, align 8, !tbaa !336
  store ptr %2, ptr %7, align 8, !tbaa !336
  %8 = load ptr, ptr %5, align 8
  %9 = load ptr, ptr %6, align 8, !tbaa !336
  %10 = call noundef zeroext i1 @_ZN11mpz_managerILb1EE8is_smallERK3mpz(ptr noundef nonnull align 8 dereferenceable(16) %9)
  br i1 %10, label %11, label %20

11:                                               ; preds = %3
  %12 = load ptr, ptr %7, align 8, !tbaa !336
  %13 = call noundef zeroext i1 @_ZN11mpz_managerILb1EE8is_smallERK3mpz(ptr noundef nonnull align 8 dereferenceable(16) %12)
  br i1 %13, label %14, label %20

14:                                               ; preds = %11
  %15 = load ptr, ptr %6, align 8, !tbaa !336
  %16 = call noundef i32 @_ZNK3mpz5valueEv(ptr noundef nonnull align 8 dereferenceable(16) %15)
  %17 = load ptr, ptr %7, align 8, !tbaa !336
  %18 = call noundef i32 @_ZNK3mpz5valueEv(ptr noundef nonnull align 8 dereferenceable(16) %17)
  %19 = icmp slt i32 %16, %18
  store i1 %19, ptr %4, align 1
  br label %25

20:                                               ; preds = %11, %3
  %21 = load ptr, ptr %6, align 8, !tbaa !336
  %22 = load ptr, ptr %7, align 8, !tbaa !336
  %23 = call noundef i32 @_ZN11mpz_managerILb1EE11big_compareERK3mpzS3_(ptr noundef nonnull align 8 dereferenceable(600) %8, ptr noundef nonnull align 8 dereferenceable(16) %21, ptr noundef nonnull align 8 dereferenceable(16) %22)
  %24 = icmp slt i32 %23, 0
  store i1 %24, ptr %4, align 1
  br label %25

25:                                               ; preds = %20, %14
  %26 = load i1, ptr %4, align 1
  ret i1 %26
}

; Function Attrs: mustprogress uwtable
define linkonce_odr hidden noundef zeroext i1 @_ZN11mpq_managerILb1EE6is_oneERK3mpz(ptr noundef nonnull align 8 dereferenceable(16) %0) #6 comdat align 2 {
  %2 = alloca ptr, align 8
  store ptr %0, ptr %2, align 8, !tbaa !336
  %3 = load ptr, ptr %2, align 8, !tbaa !336
  %4 = call noundef zeroext i1 @_ZN11mpz_managerILb1EE6is_oneERK3mpz(ptr noundef nonnull align 8 dereferenceable(16) %3)
  ret i1 %4
}

; Function Attrs: mustprogress uwtable
define linkonce_odr hidden noundef zeroext i1 @_ZN11mpq_managerILb1EE2ltERK3mpzS3_(ptr noundef nonnull align 8 dereferenceable(728) %0, ptr noundef nonnull align 8 dereferenceable(16) %1, ptr noundef nonnull align 8 dereferenceable(16) %2) #6 comdat align 2 {
  %4 = alloca ptr, align 8
  %5 = alloca ptr, align 8
  %6 = alloca ptr, align 8
  store ptr %0, ptr %4, align 8, !tbaa !104
  store ptr %1, ptr %5, align 8, !tbaa !336
  store ptr %2, ptr %6, align 8, !tbaa !336
  %7 = load ptr, ptr %4, align 8
  %8 = load ptr, ptr %5, align 8, !tbaa !336
  %9 = load ptr, ptr %6, align 8, !tbaa !336
  %10 = call noundef zeroext i1 @_ZN11mpz_managerILb1EE2ltERK3mpzS3_(ptr noundef nonnull align 8 dereferenceable(600) %7, ptr noundef nonnull align 8 dereferenceable(16) %8, ptr noundef nonnull align 8 dereferenceable(16) %9)
  ret i1 %10
}

; Function Attrs: mustprogress uwtable
define linkonce_odr hidden noundef zeroext i1 @_ZN11mpq_managerILb1EE6is_intERK3mpq(ptr noundef nonnull align 8 dereferenceable(32) %0) #6 comdat align 2 {
  %2 = alloca ptr, align 8
  store ptr %0, ptr %2, align 8, !tbaa !334
  %3 = load ptr, ptr %2, align 8, !tbaa !334
  %4 = getelementptr inbounds nuw %class.mpq, ptr %3, i32 0, i32 1
  %5 = call noundef zeroext i1 @_ZN11mpq_managerILb1EE6is_oneERK3mpz(ptr noundef nonnull align 8 dereferenceable(16) %4)
  ret i1 %5
}

; Function Attrs: mustprogress uwtable
define linkonce_odr hidden noundef zeroext i1 @_ZN11mpq_managerILb1EE2ltERK3mpqS3_(ptr noundef nonnull align 8 dereferenceable(728) %0, ptr noundef nonnull align 8 dereferenceable(32) %1, ptr noundef nonnull align 8 dereferenceable(32) %2) #6 comdat align 2 {
  %4 = alloca i1, align 1
  %5 = alloca ptr, align 8
  %6 = alloca ptr, align 8
  %7 = alloca ptr, align 8
  store ptr %0, ptr %5, align 8, !tbaa !104
  store ptr %1, ptr %6, align 8, !tbaa !334
  store ptr %2, ptr %7, align 8, !tbaa !334
  %8 = load ptr, ptr %5, align 8
  %9 = load ptr, ptr %6, align 8, !tbaa !334
  %10 = call noundef zeroext i1 @_ZN11mpq_managerILb1EE6is_intERK3mpq(ptr noundef nonnull align 8 dereferenceable(32) %9)
  br i1 %10, label %11, label %20

11:                                               ; preds = %3
  %12 = load ptr, ptr %7, align 8, !tbaa !334
  %13 = call noundef zeroext i1 @_ZN11mpq_managerILb1EE6is_intERK3mpq(ptr noundef nonnull align 8 dereferenceable(32) %12)
  br i1 %13, label %14, label %20

14:                                               ; preds = %11
  %15 = load ptr, ptr %6, align 8, !tbaa !334
  %16 = getelementptr inbounds nuw %class.mpq, ptr %15, i32 0, i32 0
  %17 = load ptr, ptr %7, align 8, !tbaa !334
  %18 = getelementptr inbounds nuw %class.mpq, ptr %17, i32 0, i32 0
  %19 = call noundef zeroext i1 @_ZN11mpq_managerILb1EE2ltERK3mpzS3_(ptr noundef nonnull align 8 dereferenceable(728) %8, ptr noundef nonnull align 8 dereferenceable(16) %16, ptr noundef nonnull align 8 dereferenceable(16) %18)
  store i1 %19, ptr %4, align 1
  br label %24

20:                                               ; preds = %11, %3
  %21 = load ptr, ptr %6, align 8, !tbaa !334
  %22 = load ptr, ptr %7, align 8, !tbaa !334
  %23 = call noundef zeroext i1 @_ZN11mpq_managerILb1EE6rat_ltERK3mpqS3_(ptr noundef nonnull align 8 dereferenceable(728) %8, ptr noundef nonnull align 8 dereferenceable(32) %21, ptr noundef nonnull align 8 dereferenceable(32) %22)
  store i1 %23, ptr %4, align 1
  br label %24

24:                                               ; preds = %20, %14
  %25 = load i1, ptr %4, align 1
  ret i1 %25
}

; Function Attrs: mustprogress nounwind uwtable
define linkonce_odr hidden noundef nonnull align 8 dereferenceable(728) ptr @_ZN8rational1mEv() #4 comdat align 2 {
  %1 = load ptr, ptr @_ZN8rational13g_mpq_managerE, align 8, !tbaa !104
  ret ptr %1
}

; Function Attrs: inlinehint mustprogress uwtable
define linkonce_odr hidden noundef zeroext i1 @_ZltRK8rationalS1_(ptr noundef nonnull align 8 dereferenceable(32) %0, ptr noundef nonnull align 8 dereferenceable(32) %1) #8 comdat {
  %3 = alloca ptr, align 8
  %4 = alloca ptr, align 8
  store ptr %0, ptr %3, align 8, !tbaa !95
  store ptr %1, ptr %4, align 8, !tbaa !95
  %5 = call noundef nonnull align 8 dereferenceable(728) ptr @_ZN8rational1mEv()
  %6 = load ptr, ptr %3, align 8, !tbaa !95
  %7 = getelementptr inbounds nuw %class.rational, ptr %6, i32 0, i32 0
  %8 = load ptr, ptr %4, align 8, !tbaa !95
  %9 = getelementptr inbounds nuw %class.rational, ptr %8, i32 0, i32 0
  %10 = call noundef zeroext i1 @_ZN11mpq_managerILb1EE2ltERK3mpqS3_(ptr noundef nonnull align 8 dereferenceable(728) %5, ptr noundef nonnull align 8 dereferenceable(32) %7, ptr noundef nonnull align 8 dereferenceable(32) %9)
  ret i1 %10
}

; Function Attrs: mustprogress nounwind uwtable
define linkonce_odr hidden noundef nonnull align 4 dereferenceable(4) ptr @_ZNK6vectorIjLb0EjEixEj(ptr noundef nonnull align 8 dereferenceable(8) %0, i32 noundef %1) #4 comdat align 2 {
  %3 = alloca ptr, align 8
  %4 = alloca i32, align 4
  store ptr %0, ptr %3, align 8, !tbaa !99
  store i32 %1, ptr %4, align 4, !tbaa !8
  %5 = load ptr, ptr %3, align 8
  %6 = getelementptr inbounds nuw %class.vector.16, ptr %5, i32 0, i32 0
  %7 = load ptr, ptr %6, align 8, !tbaa !101
  %8 = load i32, ptr %4, align 4, !tbaa !8
  %9 = zext i32 %8 to i64
  %10 = getelementptr inbounds nuw i32, ptr %7, i64 %9
  ret ptr %10
}

; Function Attrs: mustprogress nounwind uwtable
define linkonce_odr hidden noundef nonnull align 8 dereferenceable(8) ptr @_ZNK3nla6mon_eq4varsEv(ptr noundef nonnull align 8 dereferenceable(16) %0) #4 comdat align 2 {
  %2 = alloca ptr, align 8
  store ptr %0, ptr %2, align 8, !tbaa !97
  %3 = load ptr, ptr %2, align 8
  %4 = getelementptr inbounds nuw %"class.nla::mon_eq", ptr %3, i32 0, i32 1
  ret ptr %4
}

; Function Attrs: inlinehint mustprogress uwtable
define linkonce_odr hidden noundef zeroext i1 @_ZgtRK8rationalS1_(ptr noundef nonnull align 8 dereferenceable(32) %0, ptr noundef nonnull align 8 dereferenceable(32) %1) #8 comdat {
  %3 = alloca ptr, align 8
  %4 = alloca ptr, align 8
  store ptr %0, ptr %3, align 8, !tbaa !95
  store ptr %1, ptr %4, align 8, !tbaa !95
  %5 = load ptr, ptr %4, align 8, !tbaa !95
  %6 = load ptr, ptr %3, align 8, !tbaa !95
  %7 = call noundef zeroext i1 @_ZltRK8rationalS1_(ptr noundef nonnull align 8 dereferenceable(32) %5, ptr noundef nonnull align 8 dereferenceable(32) %6)
  ret i1 %7
}

; Function Attrs: mustprogress uwtable
define hidden void @_ZN3nla5order23order_lemma_on_binomialERKNS_5monicE(ptr noundef nonnull align 8 dereferenceable(184) %0, ptr noundef nonnull align 8 dereferenceable(34) %1) #6 align 2 personality ptr @__gxx_personality_v0 {
  %3 = alloca ptr, align 8
  %4 = alloca ptr, align 8
  %5 = alloca %class.rational, align 8
  %6 = alloca %class.rational, align 8
  %7 = alloca ptr, align 8
  %8 = alloca i32, align 4
  %9 = alloca i8, align 1
  %10 = alloca i8, align 1
  store ptr %0, ptr %3, align 8, !tbaa !16
  store ptr %1, ptr %4, align 8, !tbaa !63
  %11 = load ptr, ptr %3, align 8
  call void @llvm.lifetime.start.p0(i64 32, ptr %5) #3
  %12 = load ptr, ptr %4, align 8, !tbaa !63
  call void @_ZNK3nla6common7mul_valERKNS_5monicE(ptr dead_on_unwind writable sret(%class.rational) align 8 %5, ptr noundef nonnull align 8 dereferenceable(184) %11, ptr noundef nonnull align 8 dereferenceable(34) %12)
  call void @llvm.lifetime.start.p0(i64 32, ptr %6) #3
  %13 = load ptr, ptr %4, align 8, !tbaa !63
  invoke void @_ZNK3nla6common7var_valERKNS_5monicE(ptr dead_on_unwind writable sret(%class.rational) align 8 %6, ptr noundef nonnull align 8 dereferenceable(184) %11, ptr noundef nonnull align 8 dereferenceable(34) %13)
          to label %14 unwind label %55

14:                                               ; preds = %2
  call void @llvm.lifetime.start.p0(i64 1, ptr %9) #3
  %15 = invoke noundef zeroext i1 @_ZgtRK8rationalS1_(ptr noundef nonnull align 8 dereferenceable(32) %6, ptr noundef nonnull align 8 dereferenceable(32) %5)
          to label %16 unwind label %59

16:                                               ; preds = %14
  %17 = zext i1 %15 to i8
  store i8 %17, ptr %9, align 1, !tbaa !10
  call void @llvm.lifetime.start.p0(i64 1, ptr %10) #3
  store i8 0, ptr %10, align 1, !tbaa !10
  br label %18

18:                                               ; preds = %51, %16
  %19 = load ptr, ptr %4, align 8, !tbaa !63
  %20 = load ptr, ptr %4, align 8, !tbaa !63
  %21 = invoke noundef nonnull align 8 dereferenceable(8) ptr @_ZNK3nla6mon_eq4varsEv(ptr noundef nonnull align 8 dereferenceable(16) %20)
          to label %22 unwind label %63

22:                                               ; preds = %18
  %23 = load i8, ptr %10, align 1, !tbaa !10, !range !12, !noundef !13
  %24 = trunc i8 %23 to i1
  %25 = zext i1 %24 to i32
  %26 = invoke noundef nonnull align 4 dereferenceable(4) ptr @_ZNK6vectorIjLb0EjEixEj(ptr noundef nonnull align 8 dereferenceable(8) %21, i32 noundef %25)
          to label %27 unwind label %63

27:                                               ; preds = %22
  %28 = load i32, ptr %26, align 4, !tbaa !8
  %29 = load ptr, ptr %4, align 8, !tbaa !63
  %30 = invoke noundef nonnull align 8 dereferenceable(8) ptr @_ZNK3nla6mon_eq4varsEv(ptr noundef nonnull align 8 dereferenceable(16) %29)
          to label %31 unwind label %63

31:                                               ; preds = %27
  %32 = load i8, ptr %10, align 1, !tbaa !10, !range !12, !noundef !13
  %33 = trunc i8 %32 to i1
  %34 = xor i1 %33, true
  %35 = zext i1 %34 to i32
  %36 = invoke noundef nonnull align 4 dereferenceable(4) ptr @_ZNK6vectorIjLb0EjEixEj(ptr noundef nonnull align 8 dereferenceable(8) %30, i32 noundef %35)
          to label %37 unwind label %63

37:                                               ; preds = %31
  %38 = load i32, ptr %36, align 4, !tbaa !8
  %39 = load i8, ptr %9, align 1, !tbaa !10, !range !12, !noundef !13
  %40 = trunc i8 %39 to i1
  %41 = select i1 %40, i32 1, i32 -1
  invoke void @_ZN3nla5order28order_lemma_on_binomial_signERKNS_5monicEjji(ptr noundef nonnull align 8 dereferenceable(184) %11, ptr noundef nonnull align 8 dereferenceable(34) %19, i32 noundef %28, i32 noundef %38, i32 noundef %41)
          to label %42 unwind label %63

42:                                               ; preds = %37
  %43 = load ptr, ptr %4, align 8, !tbaa !63
  %44 = load i8, ptr %10, align 1, !tbaa !10, !range !12, !noundef !13
  %45 = trunc i8 %44 to i1
  invoke void @_ZN3nla5order38order_lemma_on_factor_binomial_exploreERKNS_5monicEb(ptr noundef nonnull align 8 dereferenceable(184) %11, ptr noundef nonnull align 8 dereferenceable(34) %43, i1 noundef zeroext %45)
          to label %46 unwind label %63

46:                                               ; preds = %42
  %47 = load i8, ptr %10, align 1, !tbaa !10, !range !12, !noundef !13
  %48 = trunc i8 %47 to i1
  %49 = xor i1 %48, true
  %50 = zext i1 %49 to i8
  store i8 %50, ptr %10, align 1, !tbaa !10
  br label %51

51:                                               ; preds = %46
  %52 = load i8, ptr %10, align 1, !tbaa !10, !range !12, !noundef !13
  %53 = trunc i8 %52 to i1
  br i1 %53, label %18, label %54, !llvm.loop !86

54:                                               ; preds = %51
  call void @llvm.lifetime.end.p0(i64 1, ptr %10) #3
  call void @llvm.lifetime.end.p0(i64 1, ptr %9) #3
  call void @_ZN8rationalD2Ev(ptr noundef nonnull align 8 dereferenceable(32) %6) #3
  call void @llvm.lifetime.end.p0(i64 32, ptr %6) #3
  call void @_ZN8rationalD2Ev(ptr noundef nonnull align 8 dereferenceable(32) %5) #3
  call void @llvm.lifetime.end.p0(i64 32, ptr %5) #3
  ret void

55:                                               ; preds = %2
  %56 = landingpad { ptr, i32 }
          cleanup
  %57 = extractvalue { ptr, i32 } %56, 0
  store ptr %57, ptr %7, align 8
  %58 = extractvalue { ptr, i32 } %56, 1
  store i32 %58, ptr %8, align 4
  br label %68

59:                                               ; preds = %14
  %60 = landingpad { ptr, i32 }
          cleanup
  %61 = extractvalue { ptr, i32 } %60, 0
  store ptr %61, ptr %7, align 8
  %62 = extractvalue { ptr, i32 } %60, 1
  store i32 %62, ptr %8, align 4
  br label %67

63:                                               ; preds = %42, %37, %31, %27, %22, %18
  %64 = landingpad { ptr, i32 }
          cleanup
  %65 = extractvalue { ptr, i32 } %64, 0
  store ptr %65, ptr %7, align 8
  %66 = extractvalue { ptr, i32 } %64, 1
  store i32 %66, ptr %8, align 4
  call void @llvm.lifetime.end.p0(i64 1, ptr %10) #3
  br label %67

67:                                               ; preds = %63, %59
  call void @llvm.lifetime.end.p0(i64 1, ptr %9) #3
  call void @_ZN8rationalD2Ev(ptr noundef nonnull align 8 dereferenceable(32) %6) #3
  br label %68

68:                                               ; preds = %67, %55
  call void @llvm.lifetime.end.p0(i64 32, ptr %6) #3
  call void @_ZN8rationalD2Ev(ptr noundef nonnull align 8 dereferenceable(32) %5) #3
  call void @llvm.lifetime.end.p0(i64 32, ptr %5) #3
  br label %69

69:                                               ; preds = %68
  %70 = load ptr, ptr %7, align 8
  %71 = load i32, ptr %8, align 4
  %72 = insertvalue { ptr, i32 } poison, ptr %70, 0
  %73 = insertvalue { ptr, i32 } %72, i32 %71, 1
  resume { ptr, i32 } %73
}