; Function Attrs: mustprogress uwtable
define hidden void @_ZN3nla5order23order_lemma_on_binomialERKNS_5monicE(ptr noundef nonnull align 8 dereferenceable(184) %0, ptr noundef nonnull align 8 dereferenceable(34) %1) local_unnamed_addr #4 align 2 personality ptr @__gxx_personality_v0 {
  %3 = alloca %class.rational, align 8
  %4 = alloca %class.rational, align 8
  call void @llvm.lifetime.start.p0(i64 32, ptr nonnull %3) #20
  call void @_ZNK3nla6common7mul_valERKNS_5monicE(ptr dead_on_unwind nonnull writable sret(%class.rational) align 8 %3, ptr noundef nonnull align 8 dereferenceable(184) %0, ptr noundef nonnull align 8 dereferenceable(34) %1)
  call void @llvm.lifetime.start.p0(i64 32, ptr nonnull %4) #20
  invoke void @_ZNK3nla6common7var_valERKNS_5monicE(ptr dead_on_unwind nonnull writable sret(%class.rational) align 8 %4, ptr noundef nonnull align 8 dereferenceable(184) %0, ptr noundef nonnull align 8 dereferenceable(34) %1)
          to label %5 unwind label %66

5:                                                ; preds = %2
  %6 = load ptr, ptr @_ZN8rational13g_mpq_managerE, align 8, !tbaa !71
  %7 = getelementptr inbounds nuw i8, ptr %3, i64 16
  %8 = getelementptr inbounds nuw i8, ptr %3, i64 20
  %9 = load i8, ptr %8, align 4
  %10 = and i8 %9, 1
  %11 = icmp eq i8 %10, 0
  %12 = load i32, ptr %7, align 8
  %13 = icmp eq i32 %12, 1
  %14 = select i1 %11, i1 %13, i1 false
  br i1 %14, label %15, label %41

15:                                               ; preds = %5
  %16 = getelementptr inbounds nuw i8, ptr %4, i64 16
  %17 = getelementptr inbounds nuw i8, ptr %4, i64 20
  %18 = load i8, ptr %17, align 4
  %19 = and i8 %18, 1
  %20 = icmp eq i8 %19, 0
  %21 = load i32, ptr %16, align 8
  %22 = icmp eq i32 %21, 1
  %23 = select i1 %20, i1 %22, i1 false
  br i1 %23, label %24, label %41

24:                                               ; preds = %15
  %25 = getelementptr inbounds nuw i8, ptr %3, i64 4
  %26 = load i8, ptr %25, align 4
  %27 = and i8 %26, 1
  %28 = icmp eq i8 %27, 0
  br i1 %28, label %29, label %38

29:                                               ; preds = %24
  %30 = getelementptr inbounds nuw i8, ptr %4, i64 4
  %31 = load i8, ptr %30, align 4
  %32 = and i8 %31, 1
  %33 = icmp eq i8 %32, 0
  br i1 %33, label %34, label %38

34:                                               ; preds = %29
  %35 = load i32, ptr %3, align 8, !tbaa !73
  %36 = load i32, ptr %4, align 8, !tbaa !73
  %37 = icmp slt i32 %35, %36
  br label %_ZgtRK8rationalS1_.exit

38:                                               ; preds = %29, %24
  %39 = invoke noundef i32 @_ZN11mpz_managerILb1EE11big_compareERK3mpzS3_(ptr noundef nonnull align 8 dereferenceable(728) %6, ptr noundef nonnull align 8 dereferenceable(32) %3, ptr noundef nonnull align 8 dereferenceable(32) %4)
          to label %.noexc unwind label %68

.noexc:                                           ; preds = %38
  %40 = icmp slt i32 %39, 0
  br label %_ZgtRK8rationalS1_.exit

41:                                               ; preds = %15, %5
  %42 = invoke noundef zeroext i1 @_ZN11mpq_managerILb1EE6rat_ltERK3mpqS3_(ptr noundef nonnull align 8 dereferenceable(728) %6, ptr noundef nonnull align 8 dereferenceable(32) %3, ptr noundef nonnull align 8 dereferenceable(32) %4)
          to label %_ZgtRK8rationalS1_.exit unwind label %68

_ZgtRK8rationalS1_.exit:                          ; preds = %41, %34, %.noexc
  %.0.i.i.i = phi i1 [ %37, %34 ], [ %40, %.noexc ], [ %42, %41 ]
  %43 = getelementptr inbounds nuw i8, ptr %1, i64 8
  %44 = select i1 %.0.i.i.i, i32 1, i32 -1
  br label %45

45:                                               ; preds = %_ZgtRK8rationalS1_.exit, %55
  %.0 = phi i1 [ true, %55 ], [ false, %_ZgtRK8rationalS1_.exit ]
  %46 = load ptr, ptr %43, align 8, !tbaa !43
  %47 = zext i1 %.0 to i64
  %48 = getelementptr inbounds nuw i32, ptr %46, i64 %47
  %49 = load i32, ptr %48, align 4, !tbaa !44
  %50 = xor i1 %.0, true
  %51 = zext i1 %50 to i64
  %52 = getelementptr inbounds nuw i32, ptr %46, i64 %51
  %53 = load i32, ptr %52, align 4, !tbaa !44
  invoke void @_ZN3nla5order28order_lemma_on_binomial_signERKNS_5monicEjji(ptr noundef nonnull align 8 dereferenceable(184) %0, ptr noundef nonnull align 8 dereferenceable(34) %1, i32 noundef %49, i32 noundef %53, i32 noundef %44)
          to label %54 unwind label %70

54:                                               ; preds = %45
  invoke void @_ZN3nla5order38order_lemma_on_factor_binomial_exploreERKNS_5monicEb(ptr noundef nonnull align 8 dereferenceable(184) %0, ptr noundef nonnull align 8 dereferenceable(34) %1, i1 noundef zeroext %.0)
          to label %55 unwind label %70

55:                                               ; preds = %54
  br i1 %.0, label %56, label %45, !llvm.loop !74

56:                                               ; preds = %55
  %57 = load ptr, ptr @_ZN8rational13g_mpq_managerE, align 8, !tbaa !71
  invoke void @_ZN11mpz_managerILb1EE3delEPS0_R3mpz(ptr noundef %57, ptr noundef nonnull align 8 dereferenceable(32) %4)
          to label %.noexc.i unwind label %59

.noexc.i:                                         ; preds = %56
  %58 = getelementptr inbounds nuw i8, ptr %4, i64 16
  invoke void @_ZN11mpz_managerILb1EE3delEPS0_R3mpz(ptr noundef %57, ptr noundef nonnull align 8 dereferenceable(16) %58)
          to label %_ZN8rationalD2Ev.exit unwind label %59

59:                                               ; preds = %.noexc.i, %56
  %60 = landingpad { ptr, i32 }
          catch ptr null
  %61 = extractvalue { ptr, i32 } %60, 0
  call void @__clang_call_terminate(ptr %61) #21
  unreachable

_ZN8rationalD2Ev.exit:                            ; preds = %.noexc.i
  call void @llvm.lifetime.end.p0(i64 32, ptr nonnull %4) #20
  %62 = load ptr, ptr @_ZN8rational13g_mpq_managerE, align 8, !tbaa !71
  invoke void @_ZN11mpz_managerILb1EE3delEPS0_R3mpz(ptr noundef %62, ptr noundef nonnull align 8 dereferenceable(32) %3)
          to label %.noexc.i20 unwind label %63

.noexc.i20:                                       ; preds = %_ZN8rationalD2Ev.exit
  invoke void @_ZN11mpz_managerILb1EE3delEPS0_R3mpz(ptr noundef %62, ptr noundef nonnull align 8 dereferenceable(16) %7)
          to label %_ZN8rationalD2Ev.exit21 unwind label %63

63:                                               ; preds = %.noexc.i20, %_ZN8rationalD2Ev.exit
  %64 = landingpad { ptr, i32 }
          catch ptr null
  %65 = extractvalue { ptr, i32 } %64, 0
  call void @__clang_call_terminate(ptr %65) #21
  unreachable

_ZN8rationalD2Ev.exit21:                          ; preds = %.noexc.i20
  call void @llvm.lifetime.end.p0(i64 32, ptr nonnull %3) #20
  ret void

66:                                               ; preds = %2
  %67 = landingpad { ptr, i32 }
          cleanup
  br label %73

68:                                               ; preds = %41, %38
  %69 = landingpad { ptr, i32 }
          cleanup
  br label %72

70:                                               ; preds = %54, %45
  %71 = landingpad { ptr, i32 }
          cleanup
  br label %72

72:                                               ; preds = %70, %68
  %.pn = phi { ptr, i32 } [ %71, %70 ], [ %69, %68 ]
  call void @_ZN8rationalD2Ev(ptr noundef nonnull align 8 dereferenceable(32) %4) #20
  br label %73

73:                                               ; preds = %72, %66
  %.pn.pn = phi { ptr, i32 } [ %.pn, %72 ], [ %67, %66 ]
  call void @llvm.lifetime.end.p0(i64 32, ptr nonnull %4) #20
  call void @_ZN8rationalD2Ev(ptr noundef nonnull align 8 dereferenceable(32) %3) #20
  call void @llvm.lifetime.end.p0(i64 32, ptr nonnull %3) #20
  resume { ptr, i32 } %.pn.pn
}